target datalayout = "e-m:e-p270:32:32-p271:32:32-p272:64:64-i64:64-i128:128-f80:128-n8:16:32:64-S128"
target triple = "x86_64-unknown-linux-gnu"

@_ZN8facebook5velox4utilL9kLeapDaysE = internal constant [13 x i32] [i32 0, i32 31, i32 29, i32 31, i32 30, i32 31, i32 30, i32 31, i32 31, i32 30, i32 31, i32 30, i32 31], align 16
@_ZN8facebook5velox4utilL11kNormalDaysE = internal constant [13 x i32] [i32 0, i32 31, i32 28, i32 31, i32 30, i32 31, i32 30, i32 31, i32 31, i32 30, i32 31, i32 30, i32 31], align 16
@_ZN8facebook5velox4utilL19kCumulativeLeapDaysE = internal constant [13 x i32] [i32 0, i32 31, i32 60, i32 91, i32 121, i32 152, i32 182, i32 213, i32 244, i32 274, i32 305, i32 335, i32 366], align 16
@_ZN8facebook5velox4utilL15kCumulativeDaysE = internal constant [13 x i32] [i32 0, i32 31, i32 59, i32 90, i32 120, i32 151, i32 181, i32 212, i32 243, i32 273, i32 304, i32 334, i32 365], align 16

; Function Attrs: mustprogress nounwind uwtable
define noundef zeroext i1 @_ZN8facebook5velox4util10isLeapYearEi(i32 noundef %year) #0 {
entry:
  %year.addr = alloca i32, align 4
  store i32 %year, ptr %year.addr, align 4
  %0 = load i32, ptr %year.addr, align 4
  %rem = srem i32 %0, 4
  %cmp = icmp eq i32 %rem, 0
  br i1 %cmp, label %land.rhs, label %land.end

land.rhs:                                         ; preds = %entry
  %1 = load i32, ptr %year.addr, align 4
  %rem1 = srem i32 %1, 100
  %cmp2 = icmp ne i32 %rem1, 0
  br i1 %cmp2, label %lor.end, label %lor.rhs

lor.rhs:                                          ; preds = %land.rhs
  %2 = load i32, ptr %year.addr, align 4
  %rem3 = srem i32 %2, 400
  %cmp4 = icmp eq i32 %rem3, 0
  br label %lor.end

lor.end:                                          ; preds = %lor.rhs, %land.rhs
  %3 = phi i1 [ true, %land.rhs ], [ %cmp4, %lor.rhs ]
  br label %land.end

land.end:                                         ; preds = %lor.end, %entry
  %4 = phi i1 [ false, %entry ], [ %3, %lor.end ]
  ret i1 %4
}

; Function Attrs: mustprogress nounwind uwtable
define noundef zeroext i1 @_ZN8facebook5velox4util11isValidDateEiii(i32 noundef %year, i32 noundef %month, i32 noundef %day) #0 {
entry:
  %retval = alloca i1, align 1
  %year.addr = alloca i32, align 4
  %month.addr = alloca i32, align 4
  %day.addr = alloca i32, align 4
  store i32 %year, ptr %year.addr, align 4
  store i32 %month, ptr %month.addr, align 4
  store i32 %day, ptr %day.addr, align 4
  %0 = load i32, ptr %month.addr, align 4
  %cmp = icmp slt i32 %0, 1
  br i1 %cmp, label %if.then, label %lor.lhs.false

lor.lhs.false:                                    ; preds = %entry
  %1 = load i32, ptr %month.addr, align 4
  %cmp1 = icmp sgt i32 %1, 12
  br i1 %cmp1, label %if.then, label %if.end

if.then:                                          ; preds = %lor.lhs.false, %entry
  store i1 false, ptr %retval, align 1
  br label %return

if.end:                                           ; preds = %lor.lhs.false
  %2 = load i32, ptr %year.addr, align 4
  %cmp2 = icmp slt i32 %2, -292275055
  br i1 %cmp2, label %if.then5, label %lor.lhs.false3

lor.lhs.false3:                                   ; preds = %if.end
  %3 = load i32, ptr %year.addr, align 4
  %cmp4 = icmp sgt i32 %3, 292278994
  br i1 %cmp4, label %if.then5, label %if.end6

if.then5:                                         ; preds = %lor.lhs.false3, %if.end
  store i1 false, ptr %retval, align 1
  br label %return

if.end6:                                          ; preds = %lor.lhs.false3
  %4 = load i32, ptr %day.addr, align 4
  %cmp7 = icmp slt i32 %4, 1
  br i1 %cmp7, label %if.then8, label %if.end9

if.then8:                                         ; preds = %if.end6
  store i1 false, ptr %retval, align 1
  br label %return

if.end9:                                          ; preds = %if.end6
  %5 = load i32, ptr %year.addr, align 4
  %call = call noundef zeroext i1 @_ZN8facebook5velox4util10isLeapYearEi(i32 noundef %5)
  br i1 %call, label %cond.true, label %cond.false

cond.true:                                        ; preds = %if.end9
  %6 = load i32, ptr %day.addr, align 4
  %7 = load i32, ptr %month.addr, align 4
  %idxprom = sext i32 %7 to i64
  %arrayidx = getelementptr inbounds [13 x i32], ptr @_ZN8facebook5velox4utilL9kLeapDaysE, i64 0, i64 %idxprom
  %8 = load i32, ptr %arrayidx, align 4
  %cmp10 = icmp sle i32 %6, %8
  br label %cond.end

cond.false:                                       ; preds = %if.end9
  %9 = load i32, ptr %day.addr, align 4
  %10 = load i32, ptr %month.addr, align 4
  %idxprom11 = sext i32 %10 to i64
  %arrayidx12 = getelementptr inbounds [13 x i32], ptr @_ZN8facebook5velox4utilL11kNormalDaysE, i64 0, i64 %idxprom11
  %11 = load i32, ptr %arrayidx12, align 4
  %cmp13 = icmp sle i32 %9, %11
  br label %cond.end

cond.end:                                         ; preds = %cond.false, %cond.true
  %cond = phi i1 [ %cmp10, %cond.true ], [ %cmp13, %cond.false ]
  store i1 %cond, ptr %retval, align 1
  br label %return

return:                                           ; preds = %cond.end, %if.then8, %if.then5, %if.then
  %12 = load i1, ptr %retval, align 1
  ret i1 %12
}

; Function Attrs: mustprogress nounwind uwtable
define noundef i32 @_ZN8facebook5velox4util22extractISODayOfTheWeekEi(i32 noundef %daysSinceEpoch) #0 {
entry:
  %retval = alloca i32, align 4
  %daysSinceEpoch.addr = alloca i32, align 4
  store i32 %daysSinceEpoch, ptr %daysSinceEpoch.addr, align 4
  %0 = load i32, ptr %daysSinceEpoch.addr, align 4
  %cmp = icmp slt i32 %0, 0
  br i1 %cmp, label %if.then, label %if.else

if.then:                                          ; preds = %entry
  %1 = load i32, ptr %daysSinceEpoch.addr, align 4
  %conv = sext i32 %1 to i64
  %sub = sub nsw i64 0, %conv
  %add = add nsw i64 %sub, 3
  %rem = srem i64 %add, 7
  %sub1 = sub nsw i64 7, %rem
  %conv2 = trunc i64 %sub1 to i32
  store i32 %conv2, ptr %retval, align 4
  br label %return

if.else:                                          ; preds = %entry
  %2 = load i32, ptr %daysSinceEpoch.addr, align 4
  %conv3 = sext i32 %2 to i64
  %add4 = add nsw i64 %conv3, 3
  %rem5 = srem i64 %add4, 7
  %add6 = add nsw i64 %rem5, 1
  %conv7 = trunc i64 %add6 to i32
  store i32 %conv7, ptr %retval, align 4
  br label %return

return:                                           ; preds = %if.else, %if.then
  %3 = load i32, ptr %retval, align 4
  ret i32 %3
}

; Function Attrs: mustprogress nounwind uwtable
define noundef i64 @_ZN8facebook5velox4util22daysSinceEpochFromDateEiii(i32 noundef %year, i32 noundef %month, i32 noundef %day) #0 {
entry:
  %year.addr = alloca i32, align 4
  %month.addr = alloca i32, align 4
  %day.addr = alloca i32, align 4
  %daysSinceEpoch = alloca i64, align 8
  store i32 %year, ptr %year.addr, align 4
  store i32 %month, ptr %month.addr, align 4
  store i32 %day, ptr %day.addr, align 4
  store i64 0, ptr %daysSinceEpoch, align 8
  %0 = load i32, ptr %year.addr, align 4
  %1 = load i32, ptr %month.addr, align 4
  %2 = load i32, ptr %day.addr, align 4
  %call = call noundef zeroext i1 @_ZN8facebook5velox4util11isValidDateEiii(i32 noundef %0, i32 noundef %1, i32 noundef %2)
  br i1 %call, label %if.end, label %if.then

if.then:                                          ; preds = %entry
  call void @llvm.trap()
  br label %if.end

if.end:                                           ; preds = %if.then, %entry
  br label %while.cond

while.cond:                                       ; preds = %while.body, %if.end
  %3 = load i32, ptr %year.addr, align 4
  %cmp = icmp slt i32 %3, 1970
  br i1 %cmp, label %while.body, label %while.end

while.body:                                       ; preds = %while.cond
  %4 = load i32, ptr %year.addr, align 4
  %add = add nsw i32 %4, 400
  store i32 %add, ptr %year.addr, align 4
  %5 = load i64, ptr %daysSinceEpoch, align 8
  %sub = sub nsw i64 %5, 146097
  store i64 %sub, ptr %daysSinceEpoch, align 8
  br label %while.cond, !llvm.loop !4

while.end:                                        ; preds = %while.cond
  br label %while.cond1

while.cond1:                                      ; preds = %while.body3, %while.end
  %6 = load i32, ptr %year.addr, align 4
  %cmp2 = icmp sge i32 %6, 2370
  br i1 %cmp2, label %while.body3, label %while.end6

while.body3:                                      ; preds = %while.cond1
  %7 = load i32, ptr %year.addr, align 4
  %sub4 = sub nsw i32 %7, 400
  store i32 %sub4, ptr %year.addr, align 4
  %8 = load i64, ptr %daysSinceEpoch, align 8
  %add5 = add nsw i64 %8, 146097
  store i64 %add5, ptr %daysSinceEpoch, align 8
  br label %while.cond1, !llvm.loop !6

while.end6:                                       ; preds = %while.cond1
  %9 = load i32, ptr %year.addr, align 4
  %sub7 = sub nsw i32 %9, 1970
  %idxprom = sext i32 %sub7 to i64
  %arrayidx = getelementptr inbounds [401 x i32], ptr @_ZN8facebook5velox4utilL19kCumulativeYearDaysE, i64 0, i64 %idxprom
  %10 = load i32, ptr %arrayidx, align 4
  %conv = sext i32 %10 to i64
  %11 = load i64, ptr %daysSinceEpoch, align 8
  %add8 = add nsw i64 %11, %conv
  store i64 %add8, ptr %daysSinceEpoch, align 8
  %12 = load i32, ptr %year.addr, align 4
  %call9 = call noundef zeroext i1 @_ZN8facebook5velox4util10isLeapYearEi(i32 noundef %12)
  br i1 %call9, label %cond.true, label %cond.false

cond.true:                                        ; preds = %while.end6
  %13 = load i32, ptr %month.addr, align 4
  %sub10 = sub nsw i32 %13, 1
  %idxprom11 = sext i32 %sub10 to i64
  %arrayidx12 = getelementptr inbounds [13 x i32], ptr @_ZN8facebook5velox4utilL19kCumulativeLeapDaysE, i64 0, i64 %idxprom11
  %14 = load i32, ptr %arrayidx12, align 4
  br label %cond.end

cond.false:                                       ; preds = %while.end6
  %15 = load i32, ptr %month.addr, align 4
  %sub13 = sub nsw i32 %15, 1
  %idxprom14 = sext i32 %sub13 to i64
  %arrayidx15 = getelementptr inbounds [13 x i32], ptr @_ZN8facebook5velox4utilL15kCumulativeDaysE, i64 0, i64 %idxprom14
  %16 = load i32, ptr %arrayidx15, align 4
  br label %cond.end

cond.end:                                         ; preds = %cond.false, %cond.true
  %cond = phi i32 [ %14, %cond.true ], [ %16, %cond.false ]
  %conv16 = sext i32 %cond to i64
  %17 = load i64, ptr %daysSinceEpoch, align 8
  %add17 = add nsw i64 %17, %conv16
  store i64 %add17, ptr %daysSinceEpoch, align 8
  %18 = load i32, ptr %day.addr, align 4
  %sub18 = sub nsw i32 %18, 1
  %conv19 = sext i32 %sub18 to i64
  %19 = load i64, ptr %daysSinceEpoch, align 8
  %add20 = add nsw i64 %19, %conv19
  store i64 %add20, ptr %daysSinceEpoch, align 8
  %20 = load i64, ptr %daysSinceEpoch, align 8
  ret i64 %20
}

; Function Attrs: mustprogress nounwind uwtable
define internal noundef zeroext i1 @_ZN8facebook5velox4util12_GLOBAL__N_115isValidWeekDateEiii(i32 noundef %weekYear, i32 noundef %weekOfYear, i32 noundef %dayOfWeek) #0 {
entry:
  %retval = alloca i1, align 1
  %weekYear.addr = alloca i32, align 4
  %weekOfYear.addr = alloca i32, align 4
  %dayOfWeek.addr = alloca i32, align 4
  store i32 %weekYear, ptr %weekYear.addr, align 4
  store i32 %weekOfYear, ptr %weekOfYear.addr, align 4
  store i32 %dayOfWeek, ptr %dayOfWeek.addr, align 4
  %0 = load i32, ptr %dayOfWeek.addr, align 4
  %cmp = icmp slt i32 %0, 1
  br i1 %cmp, label %if.then, label %lor.lhs.false

lor.lhs.false:                                    ; preds = %entry
  %1 = load i32, ptr %dayOfWeek.addr, align 4
  %cmp1 = icmp sgt i32 %1, 7
  br i1 %cmp1, label %if.then, label %if.end

if.then:                                          ; preds = %lor.lhs.false, %entry
  store i1 false, ptr %retval, align 1
  br label %return

if.end:                                           ; preds = %lor.lhs.false
  %2 = load i32, ptr %weekOfYear.addr, align 4
  %cmp2 = icmp slt i32 %2, 1
  br i1 %cmp2, label %if.then5, label %lor.lhs.false3

lor.lhs.false3:                                   ; preds = %if.end
  %3 = load i32, ptr %weekOfYear.addr, align 4
  %cmp4 = icmp sgt i32 %3, 52
  br i1 %cmp4, label %if.then5, label %if.end6

if.then5:                                         ; preds = %lor.lhs.false3, %if.end
  store i1 false, ptr %retval, align 1
  br label %return

if.end6:                                          ; preds = %lor.lhs.false3
  %4 = load i32, ptr %weekYear.addr, align 4
  %cmp7 = icmp slt i32 %4, -292275055
  br i1 %cmp7, label %if.then10, label %lor.lhs.false8

lor.lhs.false8:                                   ; preds = %if.end6
  %5 = load i32, ptr %weekYear.addr, align 4
  %cmp9 = icmp sgt i32 %5, 292278994
  br i1 %cmp9, label %if.then10, label %if.end11

if.then10:                                        ; preds = %lor.lhs.false8, %if.end6
  store i1 false, ptr %retval, align 1
  br label %return

if.end11:                                         ; preds = %lor.lhs.false8
  store i1 true, ptr %retval, align 1
  br label %return

return:                                           ; preds = %if.end11, %if.then10, %if.then5, %if.then
  %6 = load i1, ptr %retval, align 1
  ret i1 %6
}

; Function Attrs: mustprogress uwtable
define noundef i64 @_ZN8facebook5velox4util26daysSinceEpochFromWeekDateEiii(i32 noundef %weekYear, i32 noundef %weekOfYear, i32 noundef %dayOfWeek) #1 {
entry:
  %weekYear.addr = alloca i32, align 4
  %weekOfYear.addr = alloca i32, align 4
  %dayOfWeek.addr = alloca i32, align 4
  %daysSinceEpochOfJanFourth = alloca i64, align 8
  %firstDayOfWeekYear = alloca i32, align 4
  store i32 %weekYear, ptr %weekYear.addr, align 4
  store i32 %weekOfYear, ptr %weekOfYear.addr, align 4
  store i32 %dayOfWeek, ptr %dayOfWeek.addr, align 4
  %0 = load i32, ptr %weekYear.addr, align 4
  %1 = load i32, ptr %weekOfYear.addr, align 4
  %2 = load i32, ptr %dayOfWeek.addr, align 4
  %call = call noundef zeroext i1 @_ZN8facebook5velox4util12_GLOBAL__N_115isValidWeekDateEiii(i32 noundef %0, i32 noundef %1, i32 noundef %2)
  br i1 %call, label %if.end, label %if.then

if.then:                                          ; preds = %entry
  call void @llvm.trap()
  br label %if.end

if.end:                                           ; preds = %if.then, %entry
  %3 = load i32, ptr %weekYear.addr, align 4
  %call1 = call noundef i64 @_ZN8facebook5velox4util22daysSinceEpochFromDateEiii(i32 noundef %3, i32 noundef 1, i32 noundef 4)
  store i64 %call1, ptr %daysSinceEpochOfJanFourth, align 8
  %4 = load i64, ptr %daysSinceEpochOfJanFourth, align 8
  %conv = trunc i64 %4 to i32
  %call2 = call noundef i32 @_ZN8facebook5velox4util22extractISODayOfTheWeekEi(i32 noundef %conv)
  store i32 %call2, ptr %firstDayOfWeekYear, align 4
  %5 = load i64, ptr %daysSinceEpochOfJanFourth, align 8
  %6 = load i32, ptr %firstDayOfWeekYear, align 4
  %sub = sub nsw i32 %6, 1
  %conv3 = sext i32 %sub to i64
  %sub4 = sub nsw i64 %5, %conv3
  %7 = load i32, ptr %weekOfYear.addr, align 4
  %sub5 = sub nsw i32 %7, 1
  %mul = mul nsw i32 7, %sub5
  %conv6 = sext i32 %mul to i64
  %add = add nsw i64 %sub4, %conv6
  %8 = load i32, ptr %dayOfWeek.addr, align 4
  %conv7 = sext i32 %8 to i64
  %add8 = add nsw i64 %add, %conv7
  %sub9 = sub nsw i64 %add8, 1
  ret i64 %sub9
}