; Function Attrs: mustprogress nounwind memory(inaccessiblemem: write) uwtable
define noundef range(i64 -1572999817039, 1572998794722) i64 @_ZN8facebook5velox4util26daysSinceEpochFromWeekDateEiii(i32 noundef %weekYear, i32 noundef %weekOfYear, i32 noundef %dayOfWeek) local_unnamed_addr #2 {
entry:
  %0 = add i32 %dayOfWeek, -1
  %or.cond.i = icmp ult i32 %0, 7
  %1 = add i32 %weekOfYear, -1
  %or.cond1.i = icmp ult i32 %1, 52
  %or.cond6.i.not8 = and i1 %or.cond1.i, %or.cond.i
  %2 = add i32 %weekYear, 292275055
  %or.cond2.i = icmp ult i32 %2, 584554050
  %or.cond = and i1 %or.cond2.i, %or.cond6.i.not8
  br i1 %or.cond, label %if.end9.i.i, label %if.then

if.then:                                          ; preds = %entry
  tail call void @llvm.trap()
  unreachable

if.end9.i.i:                                      ; preds = %entry
  %3 = and i32 %weekYear, 3
  %cmp.i.i.i = icmp eq i32 %3, 0
  br i1 %cmp.i.i.i, label %land.rhs.i.i.i, label %_ZN8facebook5velox4util11isValidDateEiii.exit.i

land.rhs.i.i.i:                                   ; preds = %if.end9.i.i
  %rem1.i.i.i = srem i32 %weekYear, 100
  %cmp2.not.i.i.i = icmp eq i32 %rem1.i.i.i, 0
  br i1 %cmp2.not.i.i.i, label %_ZN8facebook5velox4util10isLeapYearEi.exit.i.i, label %_ZN8facebook5velox4util11isValidDateEiii.exit.i

_ZN8facebook5velox4util10isLeapYearEi.exit.i.i:   ; preds = %land.rhs.i.i.i
  %rem3.i.i.i = srem i32 %weekYear, 400
  %cmp4.i.i.i = icmp eq i32 %rem3.i.i.i, 0
  %spec.select.i.i = select i1 %cmp4.i.i.i, ptr getelementptr inbounds nuw (i8, ptr @_ZN8facebook5velox4utilL9kLeapDaysE, i64 4), ptr getelementptr inbounds nuw (i8, ptr @_ZN8facebook5velox4utilL11kNormalDaysE, i64 4)
  br label %_ZN8facebook5velox4util11isValidDateEiii.exit.i

_ZN8facebook5velox4util11isValidDateEiii.exit.i:  ; preds = %land.rhs.i.i.i, %if.end9.i.i, %_ZN8facebook5velox4util10isLeapYearEi.exit.i.i
  %4 = phi ptr [ %spec.select.i.i, %_ZN8facebook5velox4util10isLeapYearEi.exit.i.i ], [ getelementptr inbounds nuw (i8, ptr @_ZN8facebook5velox4utilL11kNormalDaysE, i64 4), %if.end9.i.i ], [ getelementptr inbounds nuw (i8, ptr @_ZN8facebook5velox4utilL9kLeapDaysE, i64 4), %land.rhs.i.i.i ]
  %.pn.i.i = load i32, ptr %4, align 4
  %cond.i.not.i = icmp slt i32 %.pn.i.i, 4
  br i1 %cond.i.not.i, label %if.then.i, label %while.cond.preheader.i

while.cond.preheader.i:                           ; preds = %_ZN8facebook5velox4util11isValidDateEiii.exit.i
  %cmp32.i = icmp slt i32 %weekYear, 1970
  br i1 %cmp32.i, label %while.body.preheader.i, label %while.cond1.preheader.i

while.body.preheader.i:                           ; preds = %while.cond.preheader.i
  %5 = tail call i32 @llvm.smax.i32(i32 %weekYear, i32 1570)
  %6 = icmp slt i32 %weekYear, 1570
  %umin.i.neg10 = sext i1 %6 to i32
  %umin.i = zext i1 %6 to i32
  %.neg = sub nsw i32 %5, %weekYear
  %7 = add nsw i32 %.neg, %umin.i.neg10
  %8 = udiv i32 %7, 400
  %9 = add nuw nsw i32 %8, %umin.i
  %10 = mul i32 %9, 400
  %11 = zext nneg i32 %9 to i64
  %.neg.i = mul nsw i64 %11, -146097
  %12 = add nsw i32 %weekYear, 400
  %13 = add i32 %12, %10
  %14 = add nsw i64 %.neg.i, -146097
  br label %while.cond1.preheader.i

if.then.i:                                        ; preds = %_ZN8facebook5velox4util11isValidDateEiii.exit.i
  tail call void @llvm.trap()
  unreachable

while.cond1.preheader.i:                          ; preds = %while.body.preheader.i, %while.cond.preheader.i
  %year.addr.0.lcssa.i = phi i32 [ %weekYear, %while.cond.preheader.i ], [ %13, %while.body.preheader.i ]
  %daysSinceEpoch.0.lcssa.i = phi i64 [ 0, %while.cond.preheader.i ], [ %14, %while.body.preheader.i ]
  %cmp236.i = icmp samesign ugt i32 %year.addr.0.lcssa.i, 2369
  br i1 %cmp236.i, label %while.body3.preheader.i, label %while.end6.i

while.body3.preheader.i:                          ; preds = %while.cond1.preheader.i
  %15 = add i32 %year.addr.0.lcssa.i, -2370
  %16 = urem i32 %15, 400
  %17 = udiv i32 %15, 400
  %18 = zext nneg i32 %17 to i64
  %19 = mul nuw nsw i64 %18, 146097
  %20 = add nuw nsw i32 %16, 1970
  %21 = add nsw i64 %daysSinceEpoch.0.lcssa.i, 146097
  %22 = add nsw i64 %21, %19
  br label %while.end6.i

while.end6.i:                                     ; preds = %while.body3.preheader.i, %while.cond1.preheader.i
  %year.addr.1.lcssa.i = phi i32 [ %year.addr.0.lcssa.i, %while.cond1.preheader.i ], [ %20, %while.body3.preheader.i ]
  %daysSinceEpoch.1.lcssa.i = phi i64 [ %daysSinceEpoch.0.lcssa.i, %while.cond1.preheader.i ], [ %22, %while.body3.preheader.i ]
  %sub7.i = add nsw i32 %year.addr.1.lcssa.i, -1970
  %idxprom.i = zext nneg i32 %sub7.i to i64
  %arrayidx.i = getelementptr inbounds nuw [401 x i32], ptr @_ZN8facebook5velox4utilL19kCumulativeYearDaysE, i64 0, i64 %idxprom.i
  %23 = load i32, ptr %arrayidx.i, align 4
  %24 = and i32 %year.addr.1.lcssa.i, 3
  %cmp.i.i = icmp eq i32 %24, 0
  br i1 %cmp.i.i, label %land.rhs.i.i, label %_ZN8facebook5velox4util22daysSinceEpochFromDateEiii.exit

land.rhs.i.i:                                     ; preds = %while.end6.i
  %rem1.i28.lhs.trunc.i = trunc nuw i32 %year.addr.1.lcssa.i to i16
  %rem1.i2829.i = urem i16 %rem1.i28.lhs.trunc.i, 100
  %cmp2.not.i.i = icmp eq i16 %rem1.i2829.i, 0
  br i1 %cmp2.not.i.i, label %_ZN8facebook5velox4util10isLeapYearEi.exit.i, label %_ZN8facebook5velox4util22daysSinceEpochFromDateEiii.exit

_ZN8facebook5velox4util10isLeapYearEi.exit.i:     ; preds = %land.rhs.i.i
  %rem3.i3031.i = urem i16 %rem1.i28.lhs.trunc.i, 400
  %cmp4.i.i = icmp eq i16 %rem3.i3031.i, 0
  %spec.select.i = select i1 %cmp4.i.i, ptr @_ZN8facebook5velox4utilL19kCumulativeLeapDaysE, ptr @_ZN8facebook5velox4utilL15kCumulativeDaysE
  br label %_ZN8facebook5velox4util22daysSinceEpochFromDateEiii.exit

_ZN8facebook5velox4util22daysSinceEpochFromDateEiii.exit: ; preds = %land.rhs.i.i, %while.end6.i, %_ZN8facebook5velox4util10isLeapYearEi.exit.i
  %25 = phi ptr [ %spec.select.i, %_ZN8facebook5velox4util10isLeapYearEi.exit.i ], [ @_ZN8facebook5velox4utilL15kCumulativeDaysE, %while.end6.i ], [ @_ZN8facebook5velox4utilL19kCumulativeLeapDaysE, %land.rhs.i.i ]
  %cond.i = load i32, ptr %25, align 4
  %conv.i = sext i32 %23 to i64
  %conv16.i = sext i32 %cond.i to i64
  %add8.i = add nsw i64 %daysSinceEpoch.1.lcssa.i, 3
  %add17.i = add nsw i64 %add8.i, %conv.i
  %add20.i = add nsw i64 %add17.i, %conv16.i
  %conv = trunc i64 %add20.i to i32
  %cmp.i = icmp slt i32 %conv, 0
  br i1 %cmp.i, label %if.then.i6, label %if.else.i

if.then.i6:                                       ; preds = %_ZN8facebook5velox4util22daysSinceEpochFromDateEiii.exit
  %add.i = sub i32 3, %conv
  %rem.i = urem i32 %add.i, 7
  %26 = sub nuw nsw i32 6, %rem.i
  br label %_ZN8facebook5velox4util22extractISODayOfTheWeekEi.exit

if.else.i:                                        ; preds = %_ZN8facebook5velox4util22daysSinceEpochFromDateEiii.exit
  %narrow.i = add nuw i32 %conv, 3
  %27 = urem i32 %narrow.i, 7
  br label %_ZN8facebook5velox4util22extractISODayOfTheWeekEi.exit

_ZN8facebook5velox4util22extractISODayOfTheWeekEi.exit: ; preds = %if.then.i6, %if.else.i
  %retval.0.i5 = phi i32 [ %26, %if.then.i6 ], [ %27, %if.else.i ]
  %conv3 = zext nneg i32 %retval.0.i5 to i64
  %28 = mul nuw nsw i32 %weekOfYear, 7
  %mul = add nsw i32 %28, -7
  %conv6 = zext nneg i32 %mul to i64
  %conv7 = zext nneg i32 %dayOfWeek to i64
  %sub4 = add nsw i64 %conv7, -1
  %add = add nuw nsw i64 %sub4, %conv6
  %add8 = add nsw i64 %add, %add20.i
  %sub9 = sub nsw i64 %add8, %conv3
  ret i64 %sub9
}